target datalayout = "e-m:e-p270:32:32-p271:32:32-p272:64:64-i64:64-i128:128-f80:128-n8:16:32:64-S128"
target triple = "x86_64-pc-linux-gnu"

%class.anon.8 = type { ptr, ptr }
%"class.tbb::detail::d0::raii_guard" = type <{ %class.anon.8, i8, [7 x i8] }>

; Function Attrs: inlinehint mustprogress sspstrong uwtable
define internal void @"_ZZN3tbb6detail2r123concurrent_monitor_baseImE12guarded_callINS1_10sleep_nodeImEEZNS1_26wait_bounded_queue_monitorEPNS1_18concurrent_monitorEmlRNS0_2d113delegate_baseEE3$_0EEbOT0_RT_ENKUlvE0_clEv"(ptr noundef nonnull align 8 dereferenceable(16) %0) #4 align 2 {
  %2 = alloca ptr, align 8
  store ptr %0, ptr %2, align 8, !tbaa !19
  %3 = load ptr, ptr %2, align 8
  %4 = getelementptr inbounds nuw %class.anon.8, ptr %3, i32 0, i32 0
  %5 = load ptr, ptr %4, align 8, !tbaa !84
  %6 = getelementptr inbounds nuw %class.anon.8, ptr %3, i32 0, i32 1
  %7 = load ptr, ptr %6, align 8, !tbaa !118
  call void @_ZN3tbb6detail2r123concurrent_monitor_baseImE11cancel_waitERNS1_9wait_nodeImEE(ptr noundef nonnull align 8 dereferenceable(36) %5, ptr noundef nonnull align 8 dereferenceable(40) %7)
  ret void
}

; Function Attrs: mustprogress nounwind sspstrong uwtable
define internal void @"_ZN3tbb6detail2d010raii_guardIZNS0_2r123concurrent_monitor_baseImE12guarded_callINS3_10sleep_nodeImEEZNS3_26wait_bounded_queue_monitorEPNS3_18concurrent_monitorEmlRNS0_2d113delegate_baseEE3$_0EEbOT0_RT_EUlvE0_ED2Ev"(ptr noundef nonnull align 8 dereferenceable(17) %0) unnamed_addr #5 align 2 personality ptr @__gxx_personality_v0 {
  %2 = alloca ptr, align 8
  store ptr %0, ptr %2, align 8, !tbaa !112
  %3 = load ptr, ptr %2, align 8
  %4 = getelementptr inbounds nuw %"class.tbb::detail::d0::raii_guard", ptr %3, i32 0, i32 1
  %5 = load i8, ptr %4, align 8, !tbaa !114, !range !33, !noundef !34
  %6 = trunc i8 %5 to i1
  br i1 %6, label %7, label %10

7:                                                ; preds = %1
  %8 = getelementptr inbounds nuw %"class.tbb::detail::d0::raii_guard", ptr %3, i32 0, i32 0
  invoke void @"_ZZN3tbb6detail2r123concurrent_monitor_baseImE12guarded_callINS1_10sleep_nodeImEEZNS1_26wait_bounded_queue_monitorEPNS1_18concurrent_monitorEmlRNS0_2d113delegate_baseEE3$_0EEbOT0_RT_ENKUlvE0_clEv"(ptr noundef nonnull align 8 dereferenceable(16) %8)
          to label %9 unwind label %11

9:                                                ; preds = %7
  br label %10

10:                                               ; preds = %9, %1
  ret void

11:                                               ; preds = %7
  %12 = landingpad { ptr, i32 }
          catch ptr null
  %13 = extractvalue { ptr, i32 } %12, 0
  call void @__clang_call_terminate(ptr %13) #14
  unreachable
}