; Function Attrs: mustprogress nounwind sspstrong uwtable
define internal fastcc void @"_ZN3tbb6detail2d010raii_guardIZNS0_2r123concurrent_monitor_baseImE12guarded_callINS3_10sleep_nodeImEEZNS3_26wait_bounded_queue_monitorEPNS3_18concurrent_monitorEmlRNS0_2d113delegate_baseEE3$_0EEbOT0_RT_EUlvE0_ED2Ev"(ptr noundef nonnull readonly align 8 captures(none) dereferenceable(17) %0) unnamed_addr #4 align 2 personality ptr @__gxx_personality_v0 {
  %2 = getelementptr inbounds nuw i8, ptr %0, i64 16
  %3 = load i8, ptr %2, align 8, !tbaa !30, !range !36, !noundef !37
  %4 = trunc nuw i8 %3 to i1
  br i1 %4, label %5, label %"_ZZN3tbb6detail2r123concurrent_monitor_baseImE12guarded_callINS1_10sleep_nodeImEEZNS1_26wait_bounded_queue_monitorEPNS1_18concurrent_monitorEmlRNS0_2d113delegate_baseEE3$_0EEbOT0_RT_ENKUlvE0_clEv.exit"

5:                                                ; preds = %1
  %.val = load ptr, ptr %0, align 8, !tbaa !52
  %6 = getelementptr inbounds nuw i8, ptr %0, i64 8
  %.val1 = load ptr, ptr %6, align 8, !tbaa !53
  invoke void @_ZN3tbb6detail2r123concurrent_monitor_baseImE11cancel_waitERNS1_9wait_nodeImEE(ptr noundef nonnull align 8 dereferenceable(36) %.val, ptr noundef nonnull align 8 dereferenceable(40) %.val1)
          to label %"_ZZN3tbb6detail2r123concurrent_monitor_baseImE12guarded_callINS1_10sleep_nodeImEEZNS1_26wait_bounded_queue_monitorEPNS1_18concurrent_monitorEmlRNS0_2d113delegate_baseEE3$_0EEbOT0_RT_ENKUlvE0_clEv.exit" unwind label %7

"_ZZN3tbb6detail2r123concurrent_monitor_baseImE12guarded_callINS1_10sleep_nodeImEEZNS1_26wait_bounded_queue_monitorEPNS1_18concurrent_monitorEmlRNS0_2d113delegate_baseEE3$_0EEbOT0_RT_ENKUlvE0_clEv.exit": ; preds = %5, %1
  ret void

7:                                                ; preds = %5
  %8 = landingpad { ptr, i32 }
          catch ptr null
  %9 = extractvalue { ptr, i32 } %8, 0
  tail call void @__clang_call_terminate(ptr %9) #10
  unreachable
}